EXPORTS
	_ZN17CFileManagerUtils13IsRemoteDriveER3RFsRK7TDesC16 @ 1 NONAME
	_ZN17CFileManagerUtils17HasFinalBackslashERK7TDesC16 @ 2 NONAME
	_ZN17CFileManagerUtils19StripFinalBackslashERK7TDesC16 @ 3 NONAME
	_ZN17CFileManagerUtils20EnsureFinalBackslashER6TDes16 @ 4 NONAME
	_ZN17CFileManagerUtils30IsFromInternalToRemovableDriveER3RFsRK7TDesC16S4_ @ 5 NONAME
	_ZN18CFileManagerEngine10NewFolderLERK7TDesC16 @ 6 NONAME
	_ZN18CFileManagerEngine10SetMemoryLE18TFileManagerMemory @ 7 NONAME
	_ZN18CFileManagerEngine11FolderLevelEv @ 8 NONAME
	_ZN18CFileManagerEngine11RefreshSortEv @ 9 NONAME
	_ZN18CFileManagerEngine11RenameDriveEiRK7TDesC16 @ 10 NONAME
	_ZN18CFileManagerEngine11SetObserverEP27MFileManagerProcessObserver @ 11 NONAME
	_ZN18CFileManagerEngine11UnlockDriveEiRK5TBuf8ILi16EE @ 12 NONAME
	_ZN18CFileManagerEngine12CurrentDriveEv @ 13 NONAME
	_ZN18CFileManagerEngine12CurrentIndexEv @ 14 NONAME
	_ZN18CFileManagerEngine12GetItemInfoLEi @ 15 NONAME
	_ZN18CFileManagerEngine12IsNameFoundLERK7TDesC16 @ 16 NONAME
	_ZN18CFileManagerEngine13CancelProcessEN27MFileManagerProcessObserver19TFileManagerProcessE @ 17 NONAME
	_ZN18CFileManagerEngine13CancelRefreshEv @ 18 NONAME
	_ZN18CFileManagerEngine13GetDriveInfoLER21TFileManagerDriveInfo @ 19 NONAME
	_ZN18CFileManagerEngine13GetFileSizesLERK13CArrayFixFlatIiE @ 20 NONAME
	_ZN18CFileManagerEngine13GetItemInfoLCEi @ 21 NONAME
	_ZN18CFileManagerEngine13SetSortMethodENS_11TSortMethodE @ 22 NONAME
	_ZN18CFileManagerEngine14FilesInFolderLEv @ 23 NONAME
	_ZN18CFileManagerEngine15BackupSettingsLEv @ 24 NONAME
	_ZN18CFileManagerEngine15FileSystemEventEi @ 25 NONAME
	_ZN18CFileManagerEngine15SetCurrentIndexEi @ 26 NONAME
	_ZN18CFileManagerEngine16CurrentDriveNameEv @ 27 NONAME
	_ZN18CFileManagerEngine16RefreshDirectoryEv @ 28 NONAME
	_ZN18CFileManagerEngine16RestoreSettingsLEv @ 29 NONAME
	_ZN18CFileManagerEngine16SetDrivePasswordEiRK5TBuf8ILi16EES3_ @ 30 NONAME
	_ZN18CFileManagerEngine16SetSearchFolderLERK7TDesC16 @ 31 NONAME
	_ZN18CFileManagerEngine16SetSearchStringLERK7TDesC16 @ 32 NONAME
	_ZN18CFileManagerEngine17DeleteRemoteDriveEi @ 33 NONAME
	_ZN18CFileManagerEngine18StartEjectProcessLEi @ 34 NONAME
	_ZN18CFileManagerEngine19CreateActiveDeleteLER13CArrayFixFlatIiE @ 35 NONAME
	_ZN18CFileManagerEngine19RemoveDrivePasswordEiRK5TBuf8ILi16EE @ 36 NONAME
	_ZN18CFileManagerEngine19StartBackupProcessLEN27MFileManagerProcessObserver19TFileManagerProcessE @ 37 NONAME
	_ZN18CFileManagerEngine19StartFormatProcessLEi @ 38 NONAME
	_ZN18CFileManagerEngine22ForcedRefreshDirectoryEv @ 39 NONAME
	_ZN18CFileManagerEngine24SetRemoteDriveConnectionEii @ 40 NONAME
	_ZN18CFileManagerEngine26SetDirectoryWithBackstepsLERK7TDesC16 @ 41 NONAME
	_ZN18CFileManagerEngine4NewLER3RFs @ 42 NONAME
	_ZN18CFileManagerEngine5OpenLEi @ 43 NONAME
	_ZN18CFileManagerEngine7RenameLEiRK7TDesC16 @ 44 NONAME
	_ZN18CFileManagerEngine8SetStateENS_6TStateE @ 45 NONAME
	_ZN18CFileManagerEngine9BackstepLEv @ 46 NONAME
	_ZN18CFileManagerEngine9DriveNameEi @ 47 NONAME
	_ZN18CFileManagerEngineD0Ev @ 48 NONAME
	_ZN18CFileManagerEngineD1Ev @ 49 NONAME
	_ZN18CFileManagerEngineD2Ev @ 50 NONAME
	_ZN21TFileManagerDriveInfo5ResetEv @ 51 NONAME
	_ZN21TFileManagerDriveInfoC1Ev @ 52 NONAME
	_ZN21TFileManagerDriveInfoC2Ev @ 53 NONAME
	_ZN22CFileManagerIRReceiver12ReceiveFileLEv @ 54 NONAME
	_ZN22CFileManagerIRReceiver13StopReceivingEv @ 55 NONAME
	_ZN22CFileManagerIRReceiver4NewLER27MFileManagerProcessObserverRK7TDesC16R18CFileManagerEngine @ 56 NONAME
	_ZN22CFileManagerIRReceiverD0Ev @ 57 NONAME
	_ZN22CFileManagerIRReceiverD1Ev @ 58 NONAME
	_ZN22CFileManagerIRReceiverD2Ev @ 59 NONAME
	_ZN24CFileManagerActiveDelete15DeletedDrmItemsERi @ 60 NONAME
	_ZN24CFileManagerActiveDelete8GetErrorER6TDes16 @ 61 NONAME
	_ZN24CFileManagerActiveDeleteD0Ev @ 62 NONAME
	_ZN24CFileManagerActiveDeleteD1Ev @ 63 NONAME
	_ZN24CFileManagerActiveDeleteD2Ev @ 64 NONAME
	_ZN25CFileManagerActiveExecute15CancelExecutionEv @ 65 NONAME
	_ZN25CFileManagerActiveExecute4NewLER18CFileManagerEngineN27MFileManagerProcessObserver19TFileManagerProcessERS2_R13CArrayFixFlatIiERK7TDesC16 @ 66 NONAME
	_ZN25CFileManagerActiveExecute8ExecuteLENS_18TFileManagerSwitchE @ 67 NONAME
	_ZN25CFileManagerActiveExecuteD0Ev @ 68 NONAME
	_ZN25CFileManagerActiveExecuteD1Ev @ 69 NONAME
	_ZN25CFileManagerActiveExecuteD2Ev @ 70 NONAME
	_ZN26CFileManagerBackupSettings10SetContentEm @ 71 NONAME
	_ZN26CFileManagerBackupSettings13SetSchedulingEi @ 72 NONAME
	_ZN26CFileManagerBackupSettings14SetTargetDriveEi @ 73 NONAME
	_ZN26CFileManagerBackupSettings5SaveLEv @ 74 NONAME
	_ZN26CFileManagerBackupSettings6SetDayEi @ 75 NONAME
	_ZN26CFileManagerBackupSettings7SetTimeERK5TTime @ 76 NONAME
	_ZN26CFileManagerBackupSettings8RefreshLEv @ 77 NONAME
	_ZN26CFileManagerBackupSettings9SettingAtEi @ 78 NONAME
	_ZN26CFileManagerItemProperties10OpenFilesLEv @ 79 NONAME
	_ZN26CFileManagerItemProperties15FilesContainedLEv @ 80 NONAME
	_ZN26CFileManagerItemProperties17FoldersContainedLEv @ 81 NONAME
	_ZN26CFileManagerItemProperties25ContainsAnyFilesOrFoldersEv @ 82 NONAME
	_ZN26CFileManagerItemProperties5SizeLEv @ 83 NONAME
	_ZN26CFileManagerItemProperties5TypeLEv @ 84 NONAME
	_ZN26CFileManagerItemProperties9MimeTypeLEv @ 85 NONAME
	_ZN27CFileManagerRestoreSettings12SetSelectionERKy @ 86 NONAME
	_ZN27CFileManagerRestoreSettings8RefreshLEv @ 87 NONAME
	_ZNK18CFileManagerEngine10DriveStateERmRK7TDesC16 @ 88 NONAME
	_ZNK18CFileManagerEngine10DriveStateERmi @ 89 NONAME
	_ZNK18CFileManagerEngine10SortMethodEv @ 90 NONAME
	_ZNK18CFileManagerEngine11GetMMCInfoLEv @ 91 NONAME
	_ZNK18CFileManagerEngine11IsValidNameERK7TDesC16S2_i @ 92 NONAME
	_ZNK18CFileManagerEngine12EnoughSpaceLERK7TDesC16xN27MFileManagerProcessObserver19TFileManagerProcessE @ 93 NONAME
	_ZNK18CFileManagerEngine12IllegalCharsERK7TDesC16 @ 94 NONAME
	_ZNK18CFileManagerEngine12SearchStringEv @ 95 NONAME
	_ZNK18CFileManagerEngine13GetDriveInfoLEiR21TFileManagerDriveInfo @ 96 NONAME
	_ZNK18CFileManagerEngine13LocalizedNameERK7TDesC16 @ 97 NONAME
	_ZNK18CFileManagerEngine14FeatureManagerEv @ 98 NONAME
	_ZNK18CFileManagerEngine14IsSystemFolderERK7TDesC16 @ 99 NONAME
	_ZNK18CFileManagerEngine15NavigationLevelEv @ 100 NONAME
	_ZNK18CFileManagerEngine16CurrentDirectoryEv @ 101 NONAME
	_ZNK18CFileManagerEngine16IndexToFullPathLEi @ 102 NONAME
	_ZNK18CFileManagerEngine17IndexToFullPathLCEi @ 103 NONAME
	_ZNK18CFileManagerEngine18DriveRootDirectoryEi @ 104 NONAME
	_ZNK18CFileManagerEngine19IsDistributableFileERK7TDesC16Ri @ 105 NONAME
	_ZNK18CFileManagerEngine20GetRestoreInfoArrayLER6RArrayIN27CFileManagerRestoreSettings5TInfoEEi @ 106 NONAME
	_ZNK18CFileManagerEngine23GetFormattedDriveNameLCEiii @ 107 NONAME
	_ZNK18CFileManagerEngine24AnyEjectableDrivePresentEv @ 108 NONAME
	_ZNK18CFileManagerEngine31LocalizedNameOfCurrentDirectoryEv @ 109 NONAME
	_ZNK18CFileManagerEngine5StateEv @ 110 NONAME
	_ZNK18CFileManagerEngine6MemoryEv @ 111 NONAME
	_ZNK18CFileManagerEngine7IconIdLEi @ 112 NONAME
	_ZNK18CFileManagerEngine8FileListEv @ 113 NONAME
	_ZNK18CFileManagerEngine8IsFolderEi @ 114 NONAME
	_ZNK18CFileManagerEngine9FileTypeLERK7TDesC16 @ 115 NONAME
	_ZNK18CFileManagerEngine9FileTypeLEi @ 116 NONAME
	_ZNK26CFileManagerBackupSettings10SchedulingEv @ 117 NONAME
	_ZNK26CFileManagerBackupSettings11TargetDriveEv @ 118 NONAME
	_ZNK26CFileManagerBackupSettings24AllowedDriveAttMatchMaskEv @ 119 NONAME
	_ZNK26CFileManagerBackupSettings3DayEv @ 120 NONAME
	_ZNK26CFileManagerBackupSettings4TimeEv @ 121 NONAME
	_ZNK26CFileManagerBackupSettings7ContentEv @ 122 NONAME
	_ZNK26CFileManagerFeatureManager15IsHelpSupportedEv @ 123 NONAME
	_ZNK26CFileManagerFeatureManager15IsIrdaSupportedEv @ 124 NONAME
	_ZNK26CFileManagerFeatureManager16IsWesternVariantEv @ 125 NONAME
	_ZNK26CFileManagerFeatureManager18IsDrmFullSupportedEv @ 126 NONAME
	_ZNK26CFileManagerFeatureManager18IsFeatureSupportedEi @ 127 NONAME
	_ZNK26CFileManagerFeatureManager20IsMmcPassWdSupportedEv @ 128 NONAME
	_ZNK26CFileManagerFeatureManager21IsMmcSwEjectSupportedEv @ 129 NONAME
	_ZNK26CFileManagerFeatureManager26IsRemoteStorageFwSupportedEv @ 130 NONAME
	_ZNK26CFileManagerItemProperties10NameAndExtEv @ 131 NONAME
	_ZNK26CFileManagerItemProperties12ModifiedDateEv @ 132 NONAME
	_ZNK26CFileManagerItemProperties13IsRemoteDriveEv @ 133 NONAME
	_ZNK26CFileManagerItemProperties13LocalizedNameEv @ 134 NONAME
	_ZNK26CFileManagerItemProperties17ModifiedLocalDateER5TTime @ 135 NONAME
	_ZNK26CFileManagerItemProperties3ExtEv @ 136 NONAME
	_ZNK26CFileManagerItemProperties4NameEv @ 137 NONAME
	_ZNK26CFileManagerItemProperties7DriveIdEv @ 138 NONAME
	_ZNK26CFileManagerItemProperties7IsDriveEv @ 139 NONAME
	_ZNK26CFileManagerItemProperties8FullPathEv @ 140 NONAME
	_ZNK26CFileManagerItemProperties9DriveNameEv @ 141 NONAME
	_ZNK26CFileManagerFeatureManager10IsEmbeddedEv @ 142 NONAME
	_ZN25CFileManagerActiveExecute8ToFolderEv @ 143 NONAME
	_ZN18CFileManagerEngine18SetCurrentItemNameERK7TDesC16 @ 144 NONAME
	_ZN18CFileManagerEngine12SetAppExitObEP25MAknServerAppExitObserver @ 145 NONAME
	_ZN18CFileManagerEngine14DeleteBackupsLEv @ 146 NONAME
	_ZN18CFileManagerEngine15IsDriverMountedEi @ 147 NONAME

