EXPORTS
	_ZN19FileManagerDlgUtils13ShowInfoNoteLERK7TDesC16 @ 1 NONAME
	_ZN19FileManagerDlgUtils13ShowInfoNoteLEiRK7TDesC16 @ 2 NONAME
	_ZN19FileManagerDlgUtils13ShowInfoNoteLEii @ 3 NONAME
	_ZN19FileManagerDlgUtils14ShowErrorNoteLERK7TDesC16 @ 4 NONAME
	_ZN19FileManagerDlgUtils14ShowErrorNoteLEiRK7TDesC16 @ 5 NONAME
	_ZN19FileManagerDlgUtils14ShowInfoQueryLERK7TDesC16 @ 6 NONAME
	_ZN19FileManagerDlgUtils14ShowInfoQueryLEiRK7TDesC16 @ 7 NONAME
	_ZN19FileManagerDlgUtils14ShowInfoQueryLEii @ 8 NONAME
	_ZN19FileManagerDlgUtils16ShowConfirmNoteLEi @ 9 NONAME
	_ZN19FileManagerDlgUtils16ShowWarningNoteLEi @ 10 NONAME
	_ZN19FileManagerDlgUtils17ShowWeekdayQueryLEiR4TDay @ 11 NONAME
	_ZN19FileManagerDlgUtils18ShowFileNameQueryLEiRK7TDesC16R6TDes16R18CFileManagerEngine @ 12 NONAME
	_ZN19FileManagerDlgUtils18ShowItemInfoPopupLER26CFileManagerItemPropertiesRK26CFileManagerFeatureManager @ 13 NONAME
	_ZN19FileManagerDlgUtils18ShowPasswordQueryLER6TDes16 @ 14 NONAME
	_ZN19FileManagerDlgUtils20ShowFolderNameQueryLEiR6TDes16R18CFileManagerEnginei @ 15 NONAME
	_ZN19FileManagerDlgUtils21ShowNOfMSettingQueryLEiiRmi @ 16 NONAME
	_ZN19FileManagerDlgUtils21ShowOOfMSettingQueryLEiPK12MDesC16ArrayRi @ 17 NONAME
	_ZN19FileManagerDlgUtils21ShowOOfMSettingQueryLEiiRi @ 18 NONAME
	_ZN19FileManagerDlgUtils21ShowTimeSettingQueryLEiR5TTime @ 19 NONAME
	_ZN19FileManagerDlgUtils23ShowConfirmQueryWithOkLENS_6TIconsERK7TDesC16 @ 20 NONAME
	_ZN19FileManagerDlgUtils23ShowConfirmQueryWithOkLENS_6TIconsEiRK7TDesC16 @ 21 NONAME
	_ZN19FileManagerDlgUtils23ShowConfirmQueryWithOkLENS_6TIconsEii @ 22 NONAME
	_ZN19FileManagerDlgUtils24ShowSimplePasswordQueryLERK7TDesC16R6TDes16 @ 23 NONAME
	_ZN19FileManagerDlgUtils24ShowSimplePasswordQueryLEiR6TDes16 @ 24 NONAME
	_ZN19FileManagerDlgUtils25ShowMemoryStoreInfoPopupLERK21TFileManagerDriveInfo @ 25 NONAME
	_ZN19FileManagerDlgUtils26ShowConfirmQueryWithYesNoLERK7TDesC16 @ 26 NONAME
	_ZN19FileManagerDlgUtils26ShowConfirmQueryWithYesNoLEiRK7TDesC16 @ 27 NONAME
	_ZN19FileManagerDlgUtils29ShowConfirmQueryWithOkCancelLERK7TDesC16 @ 28 NONAME
	_ZN19FileManagerDlgUtils29ShowConfirmQueryWithOkCancelLEiRK7TDesC16 @ 29 NONAME
	_ZN21CFileManagerGlobalDlg11SetObserverEP29MFileManagerGlobalDlgObserver @ 30 NONAME
	_ZN21CFileManagerGlobalDlg11ShowDialogLENS_5TTypeERK7TDesC16i @ 31 NONAME
	_ZN21CFileManagerGlobalDlg11ShowDialogLENS_5TTypeEii @ 32 NONAME
	_ZN21CFileManagerGlobalDlg12CancelDialogEv @ 33 NONAME
	_ZN21CFileManagerGlobalDlg15ProcessFinishedEv @ 34 NONAME
	_ZN21CFileManagerGlobalDlg20UpdateProgressDialogEii @ 35 NONAME
	_ZN21CFileManagerGlobalDlg4NewLEv @ 36 NONAME
	_ZN21CFileManagerGlobalDlgD0Ev @ 37 NONAME
	_ZN21CFileManagerGlobalDlgD1Ev @ 38 NONAME
	_ZN21CFileManagerGlobalDlgD2Ev @ 39 NONAME
	_ZN21CFileManagerIconArray12UpdateIconsLEv @ 40 NONAME
	_ZN21CFileManagerIconArray4NewLEv @ 41 NONAME
	_ZN21CFileManagerIconArray8FindIconEi @ 42 NONAME
	_ZN21CFileManagerIconArrayD0Ev @ 43 NONAME
	_ZN21CFileManagerIconArrayD1Ev @ 44 NONAME
	_ZN21CFileManagerIconArrayD2Ev @ 45 NONAME
	_ZN32CFileManagerFolderNavigationPane11ChangeRootLEi @ 46 NONAME
	_ZN32CFileManagerFolderNavigationPane11SetObserverEP30MFileManagerFolderNaviObserver @ 47 NONAME
	_ZN32CFileManagerFolderNavigationPane14SetFolderDepthEi @ 48 NONAME
	_ZN32CFileManagerFolderNavigationPane21HandleResourceChangeLEi @ 49 NONAME
	_ZN32CFileManagerFolderNavigationPane4NewLEiiR15TResourceReader @ 50 NONAME
	_ZN32CFileManagerFolderNavigationPaneD0Ev @ 51 NONAME
	_ZN32CFileManagerFolderNavigationPaneD1Ev @ 52 NONAME
	_ZN32CFileManagerFolderNavigationPaneD2Ev @ 53 NONAME
	_ZNK32CFileManagerFolderNavigationPane11FolderDepthEv @ 54 NONAME
	_ZTI21CFileManagerGlobalDlg @ 55 NONAME ; #<TI>#
	_ZTI21CFileManagerIconArray @ 56 NONAME ; #<TI>#
	_ZTI32CFileManagerFolderNavigationPane @ 57 NONAME ; #<TI>#
	_ZTV21CFileManagerGlobalDlg @ 58 NONAME ; #<VT>#
	_ZTV21CFileManagerIconArray @ 59 NONAME ; #<VT>#
	_ZTV32CFileManagerFolderNavigationPane @ 60 NONAME ; #<VT>#
	_ZN21CFileManagerIconArray9LoadIconLERK7TDesC16iiiii @ 61 NONAME

