EXPORTS
	_ZN12FmBkupEngine11notifyStartEbi @ 1 NONAME
	_ZN12FmBkupEngine11qt_metacallEN11QMetaObject4CallEiPPv @ 2 NONAME
	_ZN12FmBkupEngine11qt_metacastEPKc @ 3 NONAME
	_ZN12FmBkupEngine11startBackupE5QListIP24FmBkupDrivesAndOperationES0_IP20FmBkupBackupCategoryE7QStringj @ 4 NONAME
	_ZN12FmBkupEngine12cancelBackupEv @ 5 NONAME
	_ZN12FmBkupEngine12deleteBackupE5QListIP24FmBkupDrivesAndOperationE @ 6 NONAME
	_ZN12FmBkupEngine12notifyFinishEi @ 7 NONAME
	_ZN12FmBkupEngine12notifyUpdateEi @ 8 NONAME
	_ZN12FmBkupEngine12startRestoreE5QListIP24FmBkupDrivesAndOperationE @ 9 NONAME
	_ZN12FmBkupEngine15BackupSettingsLEv @ 10 NONAME
	_ZN12FmBkupEngine15notifyMemoryLowEiRi @ 11 NONAME
	_ZN12FmBkupEngine15notifyPreparingEb @ 12 NONAME
	_ZN12FmBkupEngine16RestoreSettingsLEv @ 13 NONAME
	_ZN12FmBkupEngine16staticMetaObjectE @ 14 NONAME DATA 16
	_ZN12FmBkupEngine19GetRestoreInfoArrayER5QListIP24FmBkupDrivesAndOperationERS0_I13FmRestoreInfoEi @ 15 NONAME
	_ZN12FmBkupEngine19getStaticMetaObjectEv @ 16 NONAME
	_ZN12FmBkupEngineC1EP7QObject @ 17 NONAME
	_ZN12FmBkupEngineC2EP7QObject @ 18 NONAME
	_ZN12FmBkupEngineD0Ev @ 19 NONAME
	_ZN12FmBkupEngineD1Ev @ 20 NONAME
	_ZN12FmBkupEngineD2Ev @ 21 NONAME
	_ZN16FmBackupSettings10setContentEj @ 22 NONAME
	_ZN16FmBackupSettings10setWeekdayENS_25TFileManagerBackupWeekdayE @ 23 NONAME
	_ZN16FmBackupSettings11CreateEntryERK7QStringS2_N13FmBackupEntry12TSettingTypeE @ 24 NONAME
	_ZN16FmBackupSettings11refreshListEv @ 25 NONAME
	_ZN16FmBackupSettings13setSchedulingENS_26TFileManagerBackupScheduleE @ 26 NONAME
	_ZN16FmBackupSettings14setTargetDriveERK7QString @ 27 NONAME
	_ZN16FmBackupSettings15backupEntryListEv @ 28 NONAME
	_ZN16FmBackupSettings15contentToStringEj @ 29 NONAME
	_ZN16FmBackupSettings15createTimeEntryEv @ 30 NONAME
	_ZN16FmBackupSettings15weekdayToStringENS_25TFileManagerBackupWeekdayE @ 31 NONAME
	_ZN16FmBackupSettings18createWeekdayEntryEv @ 32 NONAME
	_ZN16FmBackupSettings18schedulingToStringENS_26TFileManagerBackupScheduleE @ 33 NONAME
	_ZN16FmBackupSettings19createContentsEntryEv @ 34 NONAME
	_ZN16FmBackupSettings19targetDriveToStringERK7QString @ 35 NONAME
	_ZN16FmBackupSettings21createSchedulingEntryEv @ 36 NONAME
	_ZN16FmBackupSettings22createTargetDriveEntryEv @ 37 NONAME
	_ZN16FmBackupSettings26resetAndDestoryBackupEntryEv @ 38 NONAME
	_ZN16FmBackupSettings4loadEv @ 39 NONAME
	_ZN16FmBackupSettings4saveEv @ 40 NONAME
	_ZN16FmBackupSettings7setTimeERK5QTime @ 41 NONAME
	_ZN16FmBackupSettingsC1Ev @ 42 NONAME
	_ZN16FmBackupSettingsC2Ev @ 43 NONAME
	_ZN16FmBackupSettingsD1Ev @ 44 NONAME
	_ZN16FmBackupSettingsD2Ev @ 45 NONAME
	_ZN17FmRestoreSettings11CreateEntryERK13FmRestoreInfo @ 46 NONAME
	_ZN17FmRestoreSettings11refreshListER5QListIP24FmBkupDrivesAndOperationE @ 47 NONAME
	_ZN17FmRestoreSettings12SetSelectionERKy @ 48 NONAME
	_ZN17FmRestoreSettings16restoreEntryListEv @ 49 NONAME
	_ZN17FmRestoreSettings27resetAndDestoryRestoreEntryEv @ 50 NONAME
	_ZN17FmRestoreSettings4loadE5QListIP24FmBkupDrivesAndOperationE @ 51 NONAME
	_ZN17FmRestoreSettingsC1ER12FmBkupEngine @ 52 NONAME
	_ZN17FmRestoreSettingsC2ER12FmBkupEngine @ 53 NONAME
	_ZN17FmRestoreSettingsD1Ev @ 54 NONAME
	_ZN17FmRestoreSettingsD2Ev @ 55 NONAME
	_ZNK12FmBkupEngine10metaObjectEv @ 56 NONAME
	_ZNK12FmBkupEngine5errorEv @ 57 NONAME
	_ZNK16FmBackupSettings10schedulingEv @ 58 NONAME
	_ZNK16FmBackupSettings11targetDriveEv @ 59 NONAME
	_ZNK16FmBackupSettings16contentsSelectedEv @ 60 NONAME
	_ZNK16FmBackupSettings4timeEv @ 61 NONAME
	_ZNK16FmBackupSettings7contentEv @ 62 NONAME
	_ZNK16FmBackupSettings7weekdayEv @ 63 NONAME
	_ZNK17FmRestoreSettings13GetSelectionLER5QListI13FmRestoreInfoE @ 64 NONAME
	_ZTI12FmBkupEngine @ 65 NONAME
	_ZTV12FmBkupEngine @ 66 NONAME

