EXPORTS
	??1CFileManagerFolderNavigationPane@@UAE@XZ @ 1 NONAME ; CFileManagerFolderNavigationPane::~CFileManagerFolderNavigationPane(void)
	??1CFileManagerGlobalDlg@@UAE@XZ @ 2 NONAME ; CFileManagerGlobalDlg::~CFileManagerGlobalDlg(void)
	??1CFileManagerIconArray@@UAE@XZ @ 3 NONAME ; CFileManagerIconArray::~CFileManagerIconArray(void)
	?CancelDialog@CFileManagerGlobalDlg@@QAEXXZ @ 4 NONAME ; void CFileManagerGlobalDlg::CancelDialog(void)
	?ChangeRootL@CFileManagerFolderNavigationPane@@QAEXH@Z @ 5 NONAME ; void CFileManagerFolderNavigationPane::ChangeRootL(int)
	?FindIcon@CFileManagerIconArray@@QAEHH@Z @ 6 NONAME ; int CFileManagerIconArray::FindIcon(int)
	?FolderDepth@CFileManagerFolderNavigationPane@@QBEHXZ @ 7 NONAME ; int CFileManagerFolderNavigationPane::FolderDepth(void) const
	?HandleResourceChangeL@CFileManagerFolderNavigationPane@@QAEXH@Z @ 8 NONAME ; void CFileManagerFolderNavigationPane::HandleResourceChangeL(int)
	?NewL@CFileManagerFolderNavigationPane@@SAPAV1@HHAAVTResourceReader@@@Z @ 9 NONAME ; class CFileManagerFolderNavigationPane * CFileManagerFolderNavigationPane::NewL(int, int, class TResourceReader &)
	?NewL@CFileManagerGlobalDlg@@SAPAV1@XZ @ 10 NONAME ; class CFileManagerGlobalDlg * CFileManagerGlobalDlg::NewL(void)
	?NewL@CFileManagerIconArray@@SAPAV1@XZ @ 11 NONAME ; class CFileManagerIconArray * CFileManagerIconArray::NewL(void)
	?ProcessFinished@CFileManagerGlobalDlg@@QAEXXZ @ 12 NONAME ; void CFileManagerGlobalDlg::ProcessFinished(void)
	?SetFolderDepth@CFileManagerFolderNavigationPane@@QAEXH@Z @ 13 NONAME ; void CFileManagerFolderNavigationPane::SetFolderDepth(int)
	?SetObserver@CFileManagerFolderNavigationPane@@QAEXPAVMFileManagerFolderNaviObserver@@@Z @ 14 NONAME ; void CFileManagerFolderNavigationPane::SetObserver(class MFileManagerFolderNaviObserver *)
	?SetObserver@CFileManagerGlobalDlg@@QAEXPAVMFileManagerGlobalDlgObserver@@@Z @ 15 NONAME ; void CFileManagerGlobalDlg::SetObserver(class MFileManagerGlobalDlgObserver *)
	?ShowConfirmNoteL@FileManagerDlgUtils@@SAXH@Z @ 16 NONAME ; void FileManagerDlgUtils::ShowConfirmNoteL(int)
	?ShowConfirmQueryWithOkCancelL@FileManagerDlgUtils@@SAHABVTDesC16@@@Z @ 17 NONAME ; int FileManagerDlgUtils::ShowConfirmQueryWithOkCancelL(class TDesC16 const &)
	?ShowConfirmQueryWithOkCancelL@FileManagerDlgUtils@@SAHHABVTDesC16@@@Z @ 18 NONAME ; int FileManagerDlgUtils::ShowConfirmQueryWithOkCancelL(int, class TDesC16 const &)
	?ShowConfirmQueryWithOkL@FileManagerDlgUtils@@SAXW4TIcons@1@ABVTDesC16@@@Z @ 19 NONAME ; void FileManagerDlgUtils::ShowConfirmQueryWithOkL(enum FileManagerDlgUtils::TIcons, class TDesC16 const &)
	?ShowConfirmQueryWithOkL@FileManagerDlgUtils@@SAXW4TIcons@1@HABVTDesC16@@@Z @ 20 NONAME ; void FileManagerDlgUtils::ShowConfirmQueryWithOkL(enum FileManagerDlgUtils::TIcons, int, class TDesC16 const &)
	?ShowConfirmQueryWithOkL@FileManagerDlgUtils@@SAXW4TIcons@1@HH@Z @ 21 NONAME ; void FileManagerDlgUtils::ShowConfirmQueryWithOkL(enum FileManagerDlgUtils::TIcons, int, int)
	?ShowConfirmQueryWithYesNoL@FileManagerDlgUtils@@SAHABVTDesC16@@@Z @ 22 NONAME ; int FileManagerDlgUtils::ShowConfirmQueryWithYesNoL(class TDesC16 const &)
	?ShowConfirmQueryWithYesNoL@FileManagerDlgUtils@@SAHHABVTDesC16@@@Z @ 23 NONAME ; int FileManagerDlgUtils::ShowConfirmQueryWithYesNoL(int, class TDesC16 const &)
	?ShowDialogL@CFileManagerGlobalDlg@@QAEXW4TType@1@ABVTDesC16@@H@Z @ 24 NONAME ; void CFileManagerGlobalDlg::ShowDialogL(enum CFileManagerGlobalDlg::TType, class TDesC16 const &, int)
	?ShowDialogL@CFileManagerGlobalDlg@@QAEXW4TType@1@HH@Z @ 25 NONAME ; void CFileManagerGlobalDlg::ShowDialogL(enum CFileManagerGlobalDlg::TType, int, int)
	?ShowErrorNoteL@FileManagerDlgUtils@@SAXABVTDesC16@@@Z @ 26 NONAME ; void FileManagerDlgUtils::ShowErrorNoteL(class TDesC16 const &)
	?ShowErrorNoteL@FileManagerDlgUtils@@SAXHABVTDesC16@@@Z @ 27 NONAME ; void FileManagerDlgUtils::ShowErrorNoteL(int, class TDesC16 const &)
	?ShowFileNameQueryL@FileManagerDlgUtils@@SAHHABVTDesC16@@AAVTDes16@@AAVCFileManagerEngine@@@Z @ 28 NONAME ; int FileManagerDlgUtils::ShowFileNameQueryL(int, class TDesC16 const &, class TDes16 &, class CFileManagerEngine &)
	?ShowFolderNameQueryL@FileManagerDlgUtils@@SAHHAAVTDes16@@AAVCFileManagerEngine@@H@Z @ 29 NONAME ; int FileManagerDlgUtils::ShowFolderNameQueryL(int, class TDes16 &, class CFileManagerEngine &, int)
	?ShowInfoNoteL@FileManagerDlgUtils@@SAXABVTDesC16@@@Z @ 30 NONAME ; void FileManagerDlgUtils::ShowInfoNoteL(class TDesC16 const &)
	?ShowInfoNoteL@FileManagerDlgUtils@@SAXHABVTDesC16@@@Z @ 31 NONAME ; void FileManagerDlgUtils::ShowInfoNoteL(int, class TDesC16 const &)
	?ShowInfoNoteL@FileManagerDlgUtils@@SAXHH@Z @ 32 NONAME ; void FileManagerDlgUtils::ShowInfoNoteL(int, int)
	?ShowInfoQueryL@FileManagerDlgUtils@@SAXABVTDesC16@@@Z @ 33 NONAME ; void FileManagerDlgUtils::ShowInfoQueryL(class TDesC16 const &)
	?ShowInfoQueryL@FileManagerDlgUtils@@SAXHABVTDesC16@@@Z @ 34 NONAME ; void FileManagerDlgUtils::ShowInfoQueryL(int, class TDesC16 const &)
	?ShowInfoQueryL@FileManagerDlgUtils@@SAXHH@Z @ 35 NONAME ; void FileManagerDlgUtils::ShowInfoQueryL(int, int)
	?ShowItemInfoPopupL@FileManagerDlgUtils@@SAXAAVCFileManagerItemProperties@@ABVCFileManagerFeatureManager@@@Z @ 36 NONAME ; void FileManagerDlgUtils::ShowItemInfoPopupL(class CFileManagerItemProperties &, class CFileManagerFeatureManager const &)
	?ShowMemoryStoreInfoPopupL@FileManagerDlgUtils@@SAXABVTFileManagerDriveInfo@@@Z @ 37 NONAME ; void FileManagerDlgUtils::ShowMemoryStoreInfoPopupL(class TFileManagerDriveInfo const &)
	?ShowNOfMSettingQueryL@FileManagerDlgUtils@@SAHHHAAKH@Z @ 38 NONAME ; int FileManagerDlgUtils::ShowNOfMSettingQueryL(int, int, unsigned long &, int)
	?ShowOOfMSettingQueryL@FileManagerDlgUtils@@SAHHHAAH@Z @ 39 NONAME ; int FileManagerDlgUtils::ShowOOfMSettingQueryL(int, int, int &)
	?ShowOOfMSettingQueryL@FileManagerDlgUtils@@SAHHPBVMDesC16Array@@AAH@Z @ 40 NONAME ; int FileManagerDlgUtils::ShowOOfMSettingQueryL(int, class MDesC16Array const *, int &)
	?ShowPasswordQueryL@FileManagerDlgUtils@@SAHAAVTDes16@@@Z @ 41 NONAME ; int FileManagerDlgUtils::ShowPasswordQueryL(class TDes16 &)
	?ShowSimplePasswordQueryL@FileManagerDlgUtils@@SAHABVTDesC16@@AAVTDes16@@@Z @ 42 NONAME ; int FileManagerDlgUtils::ShowSimplePasswordQueryL(class TDesC16 const &, class TDes16 &)
	?ShowSimplePasswordQueryL@FileManagerDlgUtils@@SAHHAAVTDes16@@@Z @ 43 NONAME ; int FileManagerDlgUtils::ShowSimplePasswordQueryL(int, class TDes16 &)
	?ShowTimeSettingQueryL@FileManagerDlgUtils@@SAHHAAVTTime@@@Z @ 44 NONAME ; int FileManagerDlgUtils::ShowTimeSettingQueryL(int, class TTime &)
	?ShowWarningNoteL@FileManagerDlgUtils@@SAXH@Z @ 45 NONAME ; void FileManagerDlgUtils::ShowWarningNoteL(int)
	?ShowWeekdayQueryL@FileManagerDlgUtils@@SAHHAAW4TDay@@@Z @ 46 NONAME ; int FileManagerDlgUtils::ShowWeekdayQueryL(int, enum TDay &)
	?UpdateIconsL@CFileManagerIconArray@@QAEXXZ @ 47 NONAME ; void CFileManagerIconArray::UpdateIconsL(void)
	?UpdateProgressDialog@CFileManagerGlobalDlg@@QAEXHH@Z @ 48 NONAME ; void CFileManagerGlobalDlg::UpdateProgressDialog(int, int)
	?LoadIconL@CFileManagerIconArray@@SAPAVCGulIcon@@ABVTDesC16@@HHHHH@Z @ 49 NONAME ; class CGulIcon * CFileManagerIconArray::LoadIconL(class TDesC16 const &, int, int, int, int, int)

